target datalayout = "e-m:e-p270:32:32-p271:32:32-p272:64:64-i64:64-i128:128-f80:128-n8:16:32:64-S128"
target triple = "x86_64-pc-linux-gnu"

%struct.ARKodeMemRec = type { ptr, double, ptr, i32, i32, double, double, ptr, i32, double, ptr, i32, i32, ptr, ptr, i32, ptr, ptr, i32, ptr, ptr, ptr, ptr, ptr, ptr, ptr, ptr, ptr, ptr, ptr, ptr, ptr, ptr, ptr, i32, ptr, ptr, i32, ptr, i32, ptr, ptr, ptr, ptr, ptr, ptr, ptr, ptr, ptr, ptr, ptr, ptr, ptr, ptr, ptr, ptr, ptr, ptr, ptr, ptr, ptr, ptr, ptr, ptr, ptr, ptr, i32, ptr, ptr, ptr, ptr, ptr, ptr, ptr, i32, ptr, ptr, ptr, i32, ptr, ptr, ptr, ptr, ptr, ptr, ptr, i32, i32, i32, i32, double, double, double, double, double, double, double, double, double, double, i32, ptr, i64, i32, i32, i32, i32, i64, i64, i32, i64, i64, i64, i64, i64, i64, i64, double, double, double, double, double, i32, double, double, i32, i32, i32, i32, i32, i32, i32, i32, ptr, i32, ptr, ptr, ptr, ptr, i32, i32, i32 }
%struct._generic_SUNLinearSolver = type { ptr, ptr, ptr }
%struct._generic_SUNLinearSolver_Ops = type { ptr, ptr, ptr, ptr, ptr, ptr, ptr, ptr, ptr, ptr, ptr, ptr, ptr, ptr, ptr }
%struct.ARKLsMassMemRec = type { i32, i32, ptr, ptr, ptr, ptr, double, double, i32, double, i64, i64, i64, i64, i64, i64, i64, i64, i64, ptr, ptr, ptr, ptr, ptr, ptr, ptr, ptr, ptr, ptr, i32 }

; Function Attrs: nounwind uwtable
define i32 @arkLsMassFree(ptr noundef %0) #0 {
  %2 = alloca i32, align 4
  %3 = alloca ptr, align 8
  %4 = alloca ptr, align 8
  %5 = alloca ptr, align 8
  %6 = alloca i32, align 4
  store ptr %0, ptr %3, align 8, !tbaa !11
  call void @llvm.lifetime.start.p0(i64 8, ptr %4) #7
  call void @llvm.lifetime.start.p0(i64 8, ptr %5) #7
  %7 = load ptr, ptr %3, align 8, !tbaa !11
  %8 = icmp eq ptr %7, null
  br i1 %8, label %9, label %10

9:                                                ; preds = %1
  store i32 0, ptr %2, align 4
  store i32 1, ptr %6, align 4
  br label %106

10:                                               ; preds = %1
  %11 = load ptr, ptr %3, align 8, !tbaa !11
  %12 = getelementptr inbounds nuw %struct.ARKodeMemRec, ptr %11, i32 0, i32 69
  %13 = load ptr, ptr %12, align 8, !tbaa !97
  %14 = load ptr, ptr %3, align 8, !tbaa !11
  %15 = call ptr %13(ptr noundef %14)
  store ptr %15, ptr %5, align 8, !tbaa !3
  %16 = load ptr, ptr %5, align 8, !tbaa !3
  %17 = icmp eq ptr %16, null
  br i1 %17, label %18, label %19

18:                                               ; preds = %10
  store i32 0, ptr %2, align 4
  store i32 1, ptr %6, align 4
  br label %106

19:                                               ; preds = %10
  %20 = load ptr, ptr %5, align 8, !tbaa !3
  store ptr %20, ptr %4, align 8, !tbaa !101
  %21 = load ptr, ptr %4, align 8, !tbaa !101
  %22 = getelementptr inbounds nuw %struct.ARKLsMassMemRec, ptr %21, i32 0, i32 19
  %23 = load ptr, ptr %22, align 8, !tbaa !110
  %24 = icmp ne ptr %23, null
  br i1 %24, label %25, label %62

25:                                               ; preds = %19
  %26 = load ptr, ptr %4, align 8, !tbaa !101
  %27 = getelementptr inbounds nuw %struct.ARKLsMassMemRec, ptr %26, i32 0, i32 19
  %28 = load ptr, ptr %27, align 8, !tbaa !110
  %29 = getelementptr inbounds nuw %struct._generic_SUNLinearSolver, ptr %28, i32 0, i32 1
  %30 = load ptr, ptr %29, align 8, !tbaa !24
  %31 = icmp ne ptr %30, null
  br i1 %31, label %32, label %61

32:                                               ; preds = %25
  %33 = load ptr, ptr %4, align 8, !tbaa !101
  %34 = getelementptr inbounds nuw %struct.ARKLsMassMemRec, ptr %33, i32 0, i32 19
  %35 = load ptr, ptr %34, align 8, !tbaa !110
  %36 = getelementptr inbounds nuw %struct._generic_SUNLinearSolver, ptr %35, i32 0, i32 1
  %37 = load ptr, ptr %36, align 8, !tbaa !24
  %38 = getelementptr inbounds nuw %struct._generic_SUNLinearSolver_Ops, ptr %37, i32 0, i32 2
  %39 = load ptr, ptr %38, align 8, !tbaa !39
  %40 = icmp ne ptr %39, null
  br i1 %40, label %41, label %46

41:                                               ; preds = %32
  %42 = load ptr, ptr %4, align 8, !tbaa !101
  %43 = getelementptr inbounds nuw %struct.ARKLsMassMemRec, ptr %42, i32 0, i32 19
  %44 = load ptr, ptr %43, align 8, !tbaa !110
  %45 = call i32 @SUNLinSolSetATimes(ptr noundef %44, ptr noundef null, ptr noundef null)
  br label %46

46:                                               ; preds = %41, %32
  %47 = load ptr, ptr %4, align 8, !tbaa !101
  %48 = getelementptr inbounds nuw %struct.ARKLsMassMemRec, ptr %47, i32 0, i32 19
  %49 = load ptr, ptr %48, align 8, !tbaa !110
  %50 = getelementptr inbounds nuw %struct._generic_SUNLinearSolver, ptr %49, i32 0, i32 1
  %51 = load ptr, ptr %50, align 8, !tbaa !24
  %52 = getelementptr inbounds nuw %struct._generic_SUNLinearSolver_Ops, ptr %51, i32 0, i32 3
  %53 = load ptr, ptr %52, align 8, !tbaa !70
  %54 = icmp ne ptr %53, null
  br i1 %54, label %55, label %60

55:                                               ; preds = %46
  %56 = load ptr, ptr %4, align 8, !tbaa !101
  %57 = getelementptr inbounds nuw %struct.ARKLsMassMemRec, ptr %56, i32 0, i32 19
  %58 = load ptr, ptr %57, align 8, !tbaa !110
  %59 = call i32 @SUNLinSolSetPreconditioner(ptr noundef %58, ptr noundef null, ptr noundef null, ptr noundef null)
  br label %60

60:                                               ; preds = %55, %46
  br label %61

61:                                               ; preds = %60, %25
  br label %62

62:                                               ; preds = %61, %19
  %63 = load ptr, ptr %4, align 8, !tbaa !101
  %64 = getelementptr inbounds nuw %struct.ARKLsMassMemRec, ptr %63, i32 0, i32 20
  %65 = load ptr, ptr %64, align 8, !tbaa !137
  %66 = icmp ne ptr %65, null
  br i1 %66, label %67, label %73

67:                                               ; preds = %62
  %68 = load ptr, ptr %4, align 8, !tbaa !101
  %69 = getelementptr inbounds nuw %struct.ARKLsMassMemRec, ptr %68, i32 0, i32 20
  %70 = load ptr, ptr %69, align 8, !tbaa !137
  call void @N_VDestroy(ptr noundef %70)
  %71 = load ptr, ptr %4, align 8, !tbaa !101
  %72 = getelementptr inbounds nuw %struct.ARKLsMassMemRec, ptr %71, i32 0, i32 20
  store ptr null, ptr %72, align 8, !tbaa !137
  br label %73

73:                                               ; preds = %67, %62
  %74 = load ptr, ptr %4, align 8, !tbaa !101
  %75 = getelementptr inbounds nuw %struct.ARKLsMassMemRec, ptr %74, i32 0, i32 0
  %76 = load i32, ptr %75, align 8, !tbaa !122
  %77 = icmp ne i32 %76, 0
  br i1 %77, label %87, label %78

78:                                               ; preds = %73
  %79 = load ptr, ptr %4, align 8, !tbaa !101
  %80 = getelementptr inbounds nuw %struct.ARKLsMassMemRec, ptr %79, i32 0, i32 4
  %81 = load ptr, ptr %80, align 8, !tbaa !136
  %82 = icmp ne ptr %81, null
  br i1 %82, label %83, label %87

83:                                               ; preds = %78
  %84 = load ptr, ptr %4, align 8, !tbaa !101
  %85 = getelementptr inbounds nuw %struct.ARKLsMassMemRec, ptr %84, i32 0, i32 4
  %86 = load ptr, ptr %85, align 8, !tbaa !136
  call void @SUNMatDestroy(ptr noundef %86)
  br label %87

87:                                               ; preds = %83, %78, %73
  %88 = load ptr, ptr %4, align 8, !tbaa !101
  %89 = getelementptr inbounds nuw %struct.ARKLsMassMemRec, ptr %88, i32 0, i32 4
  store ptr null, ptr %89, align 8, !tbaa !136
  %90 = load ptr, ptr %4, align 8, !tbaa !101
  %91 = getelementptr inbounds nuw %struct.ARKLsMassMemRec, ptr %90, i32 0, i32 21
  store ptr null, ptr %91, align 8, !tbaa !154
  %92 = load ptr, ptr %4, align 8, !tbaa !101
  %93 = getelementptr inbounds nuw %struct.ARKLsMassMemRec, ptr %92, i32 0, i32 3
  store ptr null, ptr %93, align 8, !tbaa !108
  %94 = load ptr, ptr %4, align 8, !tbaa !101
  %95 = getelementptr inbounds nuw %struct.ARKLsMassMemRec, ptr %94, i32 0, i32 24
  %96 = load ptr, ptr %95, align 8, !tbaa !132
  %97 = icmp ne ptr %96, null
  br i1 %97, label %98, label %104

98:                                               ; preds = %87
  %99 = load ptr, ptr %4, align 8, !tbaa !101
  %100 = getelementptr inbounds nuw %struct.ARKLsMassMemRec, ptr %99, i32 0, i32 24
  %101 = load ptr, ptr %100, align 8, !tbaa !132
  %102 = load ptr, ptr %3, align 8, !tbaa !11
  %103 = call i32 %101(ptr noundef %102)
  br label %104

104:                                              ; preds = %98, %87
  %105 = load ptr, ptr %4, align 8, !tbaa !101
  call void @free(ptr noundef %105) #7
  store i32 0, ptr %2, align 4
  store i32 1, ptr %6, align 4
  br label %106

106:                                              ; preds = %104, %18, %9
  call void @llvm.lifetime.end.p0(i64 8, ptr %5) #7
  call void @llvm.lifetime.end.p0(i64 8, ptr %4) #7
  %107 = load i32, ptr %2, align 4
  ret i32 %107
}