; Function Attrs: nounwind uwtable
define noundef i32 @arkLsMassFree(ptr noundef %0) #0 {
  %2 = icmp eq ptr %0, null
  br i1 %2, label %44, label %3

3:                                                ; preds = %1
  %4 = getelementptr inbounds nuw i8, ptr %0, i64 536
  %5 = load ptr, ptr %4, align 8, !tbaa !75
  %6 = tail call ptr %5(ptr noundef nonnull %0) #13
  %7 = icmp eq ptr %6, null
  br i1 %7, label %44, label %8

8:                                                ; preds = %3
  %9 = getelementptr inbounds nuw i8, ptr %6, i64 144
  %10 = load ptr, ptr %9, align 8, !tbaa !88
  %.not = icmp eq ptr %10, null
  br i1 %.not, label %26, label %11

11:                                               ; preds = %8
  %12 = getelementptr inbounds nuw i8, ptr %10, i64 8
  %13 = load ptr, ptr %12, align 8, !tbaa !17
  %.not30 = icmp eq ptr %13, null
  br i1 %.not30, label %26, label %14

14:                                               ; preds = %11
  %15 = getelementptr inbounds nuw i8, ptr %13, i64 16
  %16 = load ptr, ptr %15, align 8, !tbaa !31
  %.not31 = icmp eq ptr %16, null
  br i1 %.not31, label %19, label %17

17:                                               ; preds = %14
  %18 = tail call i32 @SUNLinSolSetATimes(ptr noundef nonnull %10, ptr noundef null, ptr noundef null) #13
  %.pre = load ptr, ptr %9, align 8, !tbaa !88
  %.phi.trans.insert = getelementptr inbounds nuw i8, ptr %.pre, i64 8
  %.pre37 = load ptr, ptr %.phi.trans.insert, align 8, !tbaa !17
  br label %19

19:                                               ; preds = %17, %14
  %20 = phi ptr [ %.pre37, %17 ], [ %13, %14 ]
  %21 = phi ptr [ %.pre, %17 ], [ %10, %14 ]
  %22 = getelementptr inbounds nuw i8, ptr %20, i64 24
  %23 = load ptr, ptr %22, align 8, !tbaa !59
  %.not32 = icmp eq ptr %23, null
  br i1 %.not32, label %26, label %24

24:                                               ; preds = %19
  %25 = tail call i32 @SUNLinSolSetPreconditioner(ptr noundef nonnull %21, ptr noundef null, ptr noundef null, ptr noundef null) #13
  br label %26

26:                                               ; preds = %11, %24, %19, %8
  %27 = getelementptr inbounds nuw i8, ptr %6, i64 152
  %28 = load ptr, ptr %27, align 8, !tbaa !114
  %.not33 = icmp eq ptr %28, null
  br i1 %.not33, label %30, label %29

29:                                               ; preds = %26
  tail call void @N_VDestroy(ptr noundef nonnull %28) #13
  store ptr null, ptr %27, align 8, !tbaa !114
  br label %30

30:                                               ; preds = %29, %26
  %31 = load i32, ptr %6, align 8, !tbaa !107
  %.not34 = icmp eq i32 %31, 0
  br i1 %.not34, label %32, label %36

32:                                               ; preds = %30
  %33 = getelementptr inbounds nuw i8, ptr %6, i64 24
  %34 = load ptr, ptr %33, align 8, !tbaa !113
  %.not35 = icmp eq ptr %34, null
  br i1 %.not35, label %36, label %35

35:                                               ; preds = %32
  tail call void @SUNMatDestroy(ptr noundef nonnull %34) #13
  br label %36

36:                                               ; preds = %35, %32, %30
  %37 = getelementptr inbounds nuw i8, ptr %6, i64 160
  store ptr null, ptr %37, align 8, !tbaa !135
  %38 = getelementptr inbounds nuw i8, ptr %6, i64 16
  %39 = getelementptr inbounds nuw i8, ptr %6, i64 184
  tail call void @llvm.memset.p0.i64(ptr noundef nonnull align 8 dereferenceable(16) %38, i8 0, i64 16, i1 false)
  %40 = load ptr, ptr %39, align 8, !tbaa !136
  %.not36 = icmp eq ptr %40, null
  br i1 %.not36, label %43, label %41

41:                                               ; preds = %36
  %42 = tail call i32 %40(ptr noundef nonnull %0) #13
  br label %43

43:                                               ; preds = %41, %36
  tail call void @free(ptr noundef nonnull %6) #13
  br label %44

44:                                               ; preds = %3, %1, %43
  ret i32 0
}